; ModuleID = '53/696.c'
source_filename = "53/696.c"
target datalayout = "e-m:e-p270:32:32-p271:32:32-p272:64:64-i64:64-f80:128-n8:16:32:64-S128"
target triple = "x86_64-pc-linux-gnu"

@.str = private unnamed_addr constant [3 x i8] c"%d\00", align 1
@.str.1 = private unnamed_addr constant [2 x i8] c",\00", align 1

; Function Attrs: noinline nounwind uwtable
define dso_local void @main() #0 {
  %1 = alloca i32, align 4
  %2 = alloca i32*, align 8
  %3 = alloca i32, align 4
  %4 = alloca i32, align 4
  %5 = alloca i32*, align 8
  %6 = alloca i32, align 4
  store i32 0, i32* %6, align 4
  %7 = call i32 (i8*, ...) @__isoc99_scanf(i8* getelementptr inbounds ([3 x i8], [3 x i8]* @.str, i64 0, i64 0), i32* %1)
  %8 = load i32, i32* %1, align 4
  %9 = sext i32 %8 to i64
  %10 = mul i64 %9, 4
  %11 = call noalias i8* @malloc(i64 %10) #3
  %12 = bitcast i8* %11 to i32*
  store i32* %12, i32** %2, align 8
  %13 = load i32*, i32** %2, align 8
  store i32* %13, i32** %5, align 8
  store i32 0, i32* %3, align 4
  br label %14

14:                                               ; preds = %53, %0
  %15 = load i32, i32* %3, align 4
  %16 = load i32, i32* %1, align 4
  %17 = icmp slt i32 %15, %16
  br i1 %17, label %18, label %56

18:                                               ; preds = %14
  %19 = load i32*, i32** %5, align 8
  %20 = call i32 (i8*, ...) @__isoc99_scanf(i8* getelementptr inbounds ([3 x i8], [3 x i8]* @.str, i64 0, i64 0), i32* %19)
  store i32 0, i32* %4, align 4
  br label %21

21:                                               ; preds = %38, %18
  %22 = load i32, i32* %4, align 4
  %23 = load i32, i32* %3, align 4
  %24 = load i32, i32* %6, align 4
  %25 = sub nsw i32 %23, %24
  %26 = icmp slt i32 %22, %25
  br i1 %26, label %27, label %41

27:                                               ; preds = %21
  %28 = load i32*, i32** %5, align 8
  %29 = load i32, i32* %28, align 4
  %30 = load i32*, i32** %2, align 8
  %31 = load i32, i32* %4, align 4
  %32 = sext i32 %31 to i64
  %33 = getelementptr inbounds i32, i32* %30, i64 %32
  %34 = load i32, i32* %33, align 4
  %35 = icmp eq i32 %29, %34
  br i1 %35, label %36, label %37

36:                                               ; preds = %27
  br label %41

37:                                               ; preds = %27
  br label %38

38:                                               ; preds = %37
  %39 = load i32, i32* %4, align 4
  %40 = add nsw i32 %39, 1
  store i32 %40, i32* %4, align 4
  br label %21

41:                                               ; preds = %36, %21
  %42 = load i32, i32* %4, align 4
  %43 = load i32, i32* %3, align 4
  %44 = load i32, i32* %6, align 4
  %45 = sub nsw i32 %43, %44
  %46 = icmp ne i32 %42, %45
  br i1 %46, label %47, label %50

47:                                               ; preds = %41
  %48 = load i32, i32* %6, align 4
  %49 = add nsw i32 %48, 1
  store i32 %49, i32* %6, align 4
  br label %53

50:                                               ; preds = %41
  %51 = load i32*, i32** %5, align 8
  %52 = getelementptr inbounds i32, i32* %51, i32 1
  store i32* %52, i32** %5, align 8
  br label %53

53:                                               ; preds = %50, %47
  %54 = load i32, i32* %3, align 4
  %55 = add nsw i32 %54, 1
  store i32 %55, i32* %3, align 4
  br label %14

56:                                               ; preds = %14
  %57 = load i32*, i32** %2, align 8
  store i32* %57, i32** %5, align 8
  store i32 0, i32* %3, align 4
  br label %58

58:                                               ; preds = %78, %56
  %59 = load i32, i32* %3, align 4
  %60 = load i32, i32* %1, align 4
  %61 = load i32, i32* %6, align 4
  %62 = sub nsw i32 %60, %61
  %63 = icmp slt i32 %59, %62
  br i1 %63, label %64, label %81

64:                                               ; preds = %58
  %65 = load i32*, i32** %5, align 8
  %66 = getelementptr inbounds i32, i32* %65, i32 1
  store i32* %66, i32** %5, align 8
  %67 = load i32, i32* %65, align 4
  %68 = call i32 (i8*, ...) @printf(i8* getelementptr inbounds ([3 x i8], [3 x i8]* @.str, i64 0, i64 0), i32 %67)
  %69 = load i32, i32* %3, align 4
  %70 = load i32, i32* %1, align 4
  %71 = load i32, i32* %6, align 4
  %72 = sub nsw i32 %70, %71
  %73 = sub nsw i32 %72, 1
  %74 = icmp ne i32 %69, %73
  br i1 %74, label %75, label %77

75:                                               ; preds = %64
  %76 = call i32 (i8*, ...) @printf(i8* getelementptr inbounds ([2 x i8], [2 x i8]* @.str.1, i64 0, i64 0))
  br label %77

77:                                               ; preds = %75, %64
  br label %78

78:                                               ; preds = %77
  %79 = load i32, i32* %3, align 4
  %80 = add nsw i32 %79, 1
  store i32 %80, i32* %3, align 4
  br label %58

81:                                               ; preds = %58
  ret void
}

declare dso_local i32 @__isoc99_scanf(i8*, ...) #1

; Function Attrs: nounwind
declare dso_local noalias i8* @malloc(i64) #2

declare dso_local i32 @printf(i8*, ...) #1


!llvm.module.flags = !{!0}
!llvm.ident = !{!1}

!0 = !{i32 1, !"wchar_size", i32 4}
!1 = !{!"clang version 10.0.0-4ubuntu1 "}
